target datalayout = "e-m:e-p270:32:32-p271:32:32-p272:64:64-i64:64-i128:128-f80:128-n8:16:32:64-S128"
target triple = "x86_64-pc-linux-gnu"

%struct._wmem_strbuf_t = type { ptr, ptr, i64, i64 }

; Function Attrs: null_pointer_is_valid sspstrong uwtable
define ptr @wmem_strbuf_finalize(ptr noundef %0) #0 {
  %2 = alloca ptr, align 8
  %3 = alloca ptr, align 8
  %4 = alloca ptr, align 8
  store ptr %0, ptr %3, align 8
  %5 = load ptr, ptr %3, align 8
  %6 = icmp eq ptr %5, null
  br i1 %6, label %7, label %8

7:                                                ; preds = %1
  store ptr null, ptr %2, align 8
  br label %25

8:                                                ; preds = %1
  call void @llvm.lifetime.start.p0(i64 8, ptr %4) #15
  %9 = load ptr, ptr %3, align 8
  %10 = getelementptr inbounds nuw %struct._wmem_strbuf_t, ptr %9, i32 0, i32 0
  %11 = load ptr, ptr %10, align 8
  %12 = load ptr, ptr %3, align 8
  %13 = getelementptr inbounds nuw %struct._wmem_strbuf_t, ptr %12, i32 0, i32 1
  %14 = load ptr, ptr %13, align 8
  %15 = load ptr, ptr %3, align 8
  %16 = getelementptr inbounds nuw %struct._wmem_strbuf_t, ptr %15, i32 0, i32 2
  %17 = load i64, ptr %16, align 8
  %18 = add i64 %17, 1
  %19 = call ptr @wmem_realloc(ptr noundef %11, ptr noundef %14, i64 noundef %18) #18
  store ptr %19, ptr %4, align 8
  %20 = load ptr, ptr %3, align 8
  %21 = getelementptr inbounds nuw %struct._wmem_strbuf_t, ptr %20, i32 0, i32 0
  %22 = load ptr, ptr %21, align 8
  %23 = load ptr, ptr %3, align 8
  call void @wmem_free(ptr noundef %22, ptr noundef %23)
  %24 = load ptr, ptr %4, align 8
  store ptr %24, ptr %2, align 8
  call void @llvm.lifetime.end.p0(i64 8, ptr %4) #15
  br label %25

25:                                               ; preds = %8, %7
  %26 = load ptr, ptr %2, align 8
  ret ptr %26
}