; Function Attrs: null_pointer_is_valid sspstrong uwtable
define ptr @wmem_strbuf_finalize(ptr noundef %0) local_unnamed_addr #0 {
  %2 = icmp eq ptr %0, null
  br i1 %2, label %12, label %3

3:                                                ; preds = %1
  %4 = load ptr, ptr %0, align 8
  %5 = getelementptr inbounds nuw i8, ptr %0, i64 8
  %6 = load ptr, ptr %5, align 8
  %7 = getelementptr inbounds nuw i8, ptr %0, i64 16
  %8 = load i64, ptr %7, align 8
  %9 = add i64 %8, 1
  %10 = tail call ptr @wmem_realloc(ptr noundef %4, ptr noundef %6, i64 noundef %9) #19
  %11 = load ptr, ptr %0, align 8
  tail call void @wmem_free(ptr noundef %11, ptr noundef nonnull %0)
  br label %12

12:                                               ; preds = %1, %3
  %.0 = phi ptr [ %10, %3 ], [ null, %1 ]
  ret ptr %.0
}